target datalayout = "e-m:e-p270:32:32-p271:32:32-p272:64:64-i64:64-i128:128-f80:128-n8:16:32:64-S128"
target triple = "x86_64-pc-linux-gnu"

%struct.node_set = type { i16, ptr, ptr, i32, ptr, i32, i32, i64, i64 }

; Function Attrs: nounwind uwtable
define internal i32 @_nodes_in_sets(ptr noundef %0, ptr noundef %1, i32 noundef %2) #0 {
  %4 = alloca ptr, align 8
  %5 = alloca ptr, align 8
  %6 = alloca i32, align 4
  %7 = alloca ptr, align 8
  %8 = alloca i32, align 4
  %9 = alloca i32, align 4
  store ptr %0, ptr %4, align 8
  store ptr %1, ptr %5, align 8
  store i32 %2, ptr %6, align 4
  call void @llvm.lifetime.start.p0(i64 8, ptr %7) #8
  store ptr null, ptr %7, align 8
  call void @llvm.lifetime.start.p0(i64 4, ptr %8) #8
  store i32 0, ptr %8, align 4
  call void @llvm.lifetime.start.p0(i64 4, ptr %9) #8
  store i32 0, ptr %9, align 4
  br label %10

10:                                               ; preds = %34, %3
  %11 = load i32, ptr %9, align 4
  %12 = load i32, ptr %6, align 4
  %13 = icmp slt i32 %11, %12
  br i1 %13, label %14, label %37

14:                                               ; preds = %10
  %15 = load ptr, ptr %7, align 8
  %16 = icmp ne ptr %15, null
  br i1 %16, label %17, label %25

17:                                               ; preds = %14
  %18 = load ptr, ptr %7, align 8
  %19 = load ptr, ptr %5, align 8
  %20 = load i32, ptr %9, align 4
  %21 = sext i32 %20 to i64
  %22 = getelementptr inbounds %struct.node_set, ptr %19, i64 %21
  %23 = getelementptr inbounds nuw %struct.node_set, ptr %22, i32 0, i32 4
  %24 = load ptr, ptr %23, align 8
  call void @bit_or(ptr noundef %18, ptr noundef %24)
  br label %33

25:                                               ; preds = %14
  %26 = load ptr, ptr %5, align 8
  %27 = load i32, ptr %9, align 4
  %28 = sext i32 %27 to i64
  %29 = getelementptr inbounds %struct.node_set, ptr %26, i64 %28
  %30 = getelementptr inbounds nuw %struct.node_set, ptr %29, i32 0, i32 4
  %31 = load ptr, ptr %30, align 8
  %32 = call ptr @bit_copy(ptr noundef %31)
  store ptr %32, ptr %7, align 8
  br label %33

33:                                               ; preds = %25, %17
  br label %34

34:                                               ; preds = %33
  %35 = load i32, ptr %9, align 4
  %36 = add nsw i32 %35, 1
  store i32 %36, ptr %9, align 4
  br label %10, !llvm.loop !31

37:                                               ; preds = %10
  %38 = load ptr, ptr %7, align 8
  %39 = icmp eq ptr %38, null
  br i1 %39, label %45, label %40

40:                                               ; preds = %37
  %41 = load ptr, ptr %4, align 8
  %42 = load ptr, ptr %7, align 8
  %43 = call i32 @bit_super_set(ptr noundef %41, ptr noundef %42)
  %44 = icmp ne i32 %43, 1
  br i1 %44, label %45, label %46

45:                                               ; preds = %40, %37
  store i32 2014, ptr %8, align 4
  br label %46

46:                                               ; preds = %45, %40
  br label %47

47:                                               ; preds = %46
  %48 = load ptr, ptr %7, align 8
  %49 = icmp ne ptr %48, null
  br i1 %49, label %50, label %51

50:                                               ; preds = %47
  call void @slurm_bit_free(ptr noundef %7)
  br label %51

51:                                               ; preds = %50, %47
  store ptr null, ptr %7, align 8
  br label %52

52:                                               ; preds = %51
  br label %53

53:                                               ; preds = %52
  %54 = load i32, ptr %8, align 4
  call void @llvm.lifetime.end.p0(i64 4, ptr %9) #8
  call void @llvm.lifetime.end.p0(i64 4, ptr %8) #8
  call void @llvm.lifetime.end.p0(i64 8, ptr %7) #8
  ret i32 %54
}