; Function Attrs: nounwind uwtable
define internal fastcc range(i32 0, 2015) i32 @_nodes_in_sets(ptr noundef nonnull %0, ptr noundef readonly captures(none) %1, i32 noundef %2) unnamed_addr #0 {
  %4 = alloca ptr, align 8
  call void @llvm.lifetime.start.p0(i64 8, ptr nonnull %4) #14
  %5 = icmp sgt i32 %2, 0
  br i1 %5, label %.lr.ph.preheader, label %.thread

.lr.ph.preheader:                                 ; preds = %3
  %wide.trip.count = zext nneg i32 %2 to i64
  br label %.lr.ph

.lr.ph:                                           ; preds = %.lr.ph.preheader, %12
  %indvars.iv = phi i64 [ 0, %.lr.ph.preheader ], [ %indvars.iv.next, %12 ]
  %6 = phi ptr [ null, %.lr.ph.preheader ], [ %13, %12 ]
  %.not12 = icmp eq ptr %6, null
  %7 = getelementptr inbounds nuw %struct.node_set, ptr %1, i64 %indvars.iv, i32 4
  %8 = load ptr, ptr %7, align 8
  br i1 %.not12, label %10, label %9

9:                                                ; preds = %.lr.ph
  tail call void @bit_or(ptr noundef nonnull %6, ptr noundef %8) #14
  br label %12

10:                                               ; preds = %.lr.ph
  %11 = tail call ptr @bit_copy(ptr noundef %8) #14
  br label %12

12:                                               ; preds = %9, %10
  %13 = phi ptr [ %6, %9 ], [ %11, %10 ]
  %indvars.iv.next = add nuw nsw i64 %indvars.iv, 1
  %exitcond.not = icmp eq i64 %indvars.iv.next, %wide.trip.count
  br i1 %exitcond.not, label %._crit_edge, label %.lr.ph, !llvm.loop !35

._crit_edge:                                      ; preds = %12
  store ptr %13, ptr %4, align 8
  %14 = icmp eq ptr %13, null
  br i1 %14, label %.thread, label %15

15:                                               ; preds = %._crit_edge
  %16 = tail call i32 @bit_super_set(ptr noundef nonnull %0, ptr noundef nonnull %13) #14
  %.not = icmp eq i32 %16, 1
  %spec.select = select i1 %.not, i32 0, i32 2014
  call void @slurm_bit_free(ptr noundef nonnull %4) #14
  br label %.thread

.thread:                                          ; preds = %3, %._crit_edge, %15
  %.0817 = phi i32 [ %spec.select, %15 ], [ 2014, %._crit_edge ], [ 2014, %3 ]
  call void @llvm.lifetime.end.p0(i64 8, ptr nonnull %4) #14
  ret i32 %.0817
}